; Function Attrs: mustprogress uwtable
define hidden noundef zeroext i1 @_ZNK14bv_decl_plugin12are_distinctEP3appS1_(ptr noundef nonnull align 8 dereferenceable(608) %0, ptr noundef %1, ptr noundef %2) unnamed_addr #3 align 2 personality ptr @__gxx_personality_v0 {
  %4 = alloca %class.rational, align 8
  %5 = alloca ptr, align 8
  %6 = alloca %class.rational, align 8
  %7 = alloca ptr, align 8
  %.not.i = icmp eq ptr %1, %2
  br i1 %.not.i, label %_ZNK11decl_plugin12are_distinctEP3appS1_.exit.thread, label %8

8:                                                ; preds = %3
  %9 = load ptr, ptr %0, align 8, !tbaa !11
  %10 = getelementptr inbounds nuw i8, ptr %9, i64 88
  %11 = load ptr, ptr %10, align 8
  %12 = tail call noundef zeroext i1 %11(ptr noundef nonnull align 8 dereferenceable(20) %0, ptr noundef %1)
  br i1 %12, label %_ZNK11decl_plugin12are_distinctEP3appS1_.exit, label %_ZNK11decl_plugin12are_distinctEP3appS1_.exit.thread

_ZNK11decl_plugin12are_distinctEP3appS1_.exit:    ; preds = %8
  %13 = load ptr, ptr %0, align 8, !tbaa !11
  %14 = getelementptr inbounds nuw i8, ptr %13, i64 88
  %15 = load ptr, ptr %14, align 8
  %16 = tail call noundef zeroext i1 %15(ptr noundef nonnull align 8 dereferenceable(20) %0, ptr noundef %2)
  br i1 %16, label %74, label %_ZNK11decl_plugin12are_distinctEP3appS1_.exit.thread

_ZNK11decl_plugin12are_distinctEP3appS1_.exit.thread: ; preds = %3, %8, %_ZNK11decl_plugin12are_distinctEP3appS1_.exit
  call void @llvm.lifetime.start.p0(i64 32, ptr nonnull %4) #24
  store i32 0, ptr %4, align 8, !tbaa !143
  %17 = getelementptr inbounds nuw i8, ptr %4, i64 4
  store i8 0, ptr %17, align 4
  %18 = getelementptr inbounds nuw i8, ptr %4, i64 8
  store ptr null, ptr %18, align 8, !tbaa !149
  %19 = getelementptr inbounds nuw i8, ptr %4, i64 16
  store i32 1, ptr %19, align 8, !tbaa !143
  %20 = getelementptr inbounds nuw i8, ptr %4, i64 20
  store i8 0, ptr %20, align 4
  %21 = getelementptr inbounds nuw i8, ptr %4, i64 24
  store ptr null, ptr %21, align 8, !tbaa !149
  call void @llvm.lifetime.start.p0(i64 8, ptr nonnull %5) #24
  call void @llvm.lifetime.start.p0(i64 32, ptr nonnull %6) #24
  store i32 0, ptr %6, align 8, !tbaa !143
  %22 = getelementptr inbounds nuw i8, ptr %6, i64 4
  store i8 0, ptr %22, align 4
  %23 = getelementptr inbounds nuw i8, ptr %6, i64 8
  store ptr null, ptr %23, align 8, !tbaa !149
  %24 = getelementptr inbounds nuw i8, ptr %6, i64 16
  store i32 1, ptr %24, align 8, !tbaa !143
  %25 = getelementptr inbounds nuw i8, ptr %6, i64 20
  store i8 0, ptr %25, align 4
  %26 = getelementptr inbounds nuw i8, ptr %6, i64 24
  store ptr null, ptr %26, align 8, !tbaa !149
  call void @llvm.lifetime.start.p0(i64 8, ptr nonnull %7) #24
  invoke void @_ZNK14bv_decl_plugin15get_offset_termEP3appRP4exprR8rational(ptr noundef nonnull align 8 dereferenceable(608) %0, ptr noundef %1, ptr noundef nonnull align 8 dereferenceable(8) %5, ptr noundef nonnull align 8 dereferenceable(32) %4)
          to label %27 unwind label %63

27:                                               ; preds = %_ZNK11decl_plugin12are_distinctEP3appS1_.exit.thread
  invoke void @_ZNK14bv_decl_plugin15get_offset_termEP3appRP4exprR8rational(ptr noundef nonnull align 8 dereferenceable(608) %0, ptr noundef %2, ptr noundef nonnull align 8 dereferenceable(8) %7, ptr noundef nonnull align 8 dereferenceable(32) %6)
          to label %28 unwind label %63

28:                                               ; preds = %27
  %29 = load ptr, ptr %5, align 8, !tbaa !159
  %30 = load ptr, ptr %7, align 8, !tbaa !159
  %31 = icmp eq ptr %29, %30
  br i1 %31, label %32, label %65

32:                                               ; preds = %28
  %33 = load ptr, ptr @_ZN8rational13g_mpq_managerE, align 8, !tbaa !119
  %34 = load i8, ptr %17, align 4
  %35 = and i8 %34, 1
  %36 = icmp eq i8 %35, 0
  br i1 %36, label %37, label %_ZN11mpq_managerILb1EE2eqERK3mpzS3_.exit.i.i.i

37:                                               ; preds = %32
  %38 = load i8, ptr %22, align 4
  %39 = and i8 %38, 1
  %40 = icmp eq i8 %39, 0
  br i1 %40, label %41, label %_ZN11mpq_managerILb1EE2eqERK3mpzS3_.exit.i.i.i

41:                                               ; preds = %37
  %42 = load i32, ptr %4, align 8, !tbaa !143
  %43 = load i32, ptr %6, align 8, !tbaa !143
  %44 = icmp eq i32 %42, %43
  br i1 %44, label %47, label %.thread

_ZN11mpq_managerILb1EE2eqERK3mpzS3_.exit.i.i.i:   ; preds = %37, %32
  %45 = invoke noundef i32 @_ZN11mpz_managerILb1EE11big_compareERK3mpzS3_(ptr noundef nonnull align 8 dereferenceable(728) %33, ptr noundef nonnull align 8 dereferenceable(32) %4, ptr noundef nonnull align 8 dereferenceable(32) %6)
          to label %.noexc unwind label %63

.noexc:                                           ; preds = %_ZN11mpq_managerILb1EE2eqERK3mpzS3_.exit.i.i.i
  %46 = icmp eq i32 %45, 0
  br i1 %46, label %47, label %.thread

47:                                               ; preds = %.noexc, %41
  %48 = load i8, ptr %20, align 4
  %49 = and i8 %48, 1
  %50 = icmp eq i8 %49, 0
  br i1 %50, label %51, label %59

51:                                               ; preds = %47
  %52 = load i8, ptr %25, align 4
  %53 = and i8 %52, 1
  %54 = icmp eq i8 %53, 0
  br i1 %54, label %55, label %59

55:                                               ; preds = %51
  %56 = load i32, ptr %19, align 8, !tbaa !143
  %57 = load i32, ptr %24, align 8, !tbaa !143
  %58 = icmp eq i32 %56, %57
  br i1 %58, label %65, label %.thread

59:                                               ; preds = %51, %47
  %60 = invoke noundef i32 @_ZN11mpz_managerILb1EE11big_compareERK3mpzS3_(ptr noundef nonnull align 8 dereferenceable(728) %33, ptr noundef nonnull align 8 dereferenceable(16) %19, ptr noundef nonnull align 8 dereferenceable(16) %24)
          to label %61 unwind label %63

61:                                               ; preds = %59
  %62 = icmp eq i32 %60, 0
  br i1 %62, label %65, label %.thread

63:                                               ; preds = %59, %_ZN11mpq_managerILb1EE2eqERK3mpzS3_.exit.i.i.i, %27, %_ZNK11decl_plugin12are_distinctEP3appS1_.exit.thread
  %64 = landingpad { ptr, i32 }
          cleanup
  call void @llvm.lifetime.end.p0(i64 8, ptr nonnull %7) #24
  call void @_ZN8rationalD2Ev(ptr noundef nonnull align 8 dereferenceable(32) %6) #24
  call void @llvm.lifetime.end.p0(i64 32, ptr nonnull %6) #24
  call void @llvm.lifetime.end.p0(i64 8, ptr nonnull %5) #24
  call void @_ZN8rationalD2Ev(ptr noundef nonnull align 8 dereferenceable(32) %4) #24
  call void @llvm.lifetime.end.p0(i64 32, ptr nonnull %4) #24
  resume { ptr, i32 } %64

65:                                               ; preds = %55, %61, %28
  br label %.thread

.thread:                                          ; preds = %55, %41, %.noexc, %61, %65
  %.1 = phi i1 [ false, %65 ], [ true, %61 ], [ true, %.noexc ], [ true, %41 ], [ true, %55 ]
  call void @llvm.lifetime.end.p0(i64 8, ptr nonnull %7) #24
  %66 = load ptr, ptr @_ZN8rational13g_mpq_managerE, align 8, !tbaa !119
  invoke void @_ZN11mpz_managerILb1EE3delEPS0_R3mpz(ptr noundef %66, ptr noundef nonnull align 8 dereferenceable(32) %6)
          to label %.noexc.i unwind label %67

.noexc.i:                                         ; preds = %.thread
  invoke void @_ZN11mpz_managerILb1EE3delEPS0_R3mpz(ptr noundef %66, ptr noundef nonnull align 8 dereferenceable(16) %24)
          to label %_ZN8rationalD2Ev.exit unwind label %67

67:                                               ; preds = %.noexc.i, %.thread
  %68 = landingpad { ptr, i32 }
          catch ptr null
  %69 = extractvalue { ptr, i32 } %68, 0
  call void @__clang_call_terminate(ptr %69) #25
  unreachable

_ZN8rationalD2Ev.exit:                            ; preds = %.noexc.i
  call void @llvm.lifetime.end.p0(i64 32, ptr nonnull %6) #24
  call void @llvm.lifetime.end.p0(i64 8, ptr nonnull %5) #24
  %70 = load ptr, ptr @_ZN8rational13g_mpq_managerE, align 8, !tbaa !119
  invoke void @_ZN11mpz_managerILb1EE3delEPS0_R3mpz(ptr noundef %70, ptr noundef nonnull align 8 dereferenceable(32) %4)
          to label %.noexc.i11 unwind label %71

.noexc.i11:                                       ; preds = %_ZN8rationalD2Ev.exit
  invoke void @_ZN11mpz_managerILb1EE3delEPS0_R3mpz(ptr noundef %70, ptr noundef nonnull align 8 dereferenceable(16) %19)
          to label %_ZN8rationalD2Ev.exit12 unwind label %71

71:                                               ; preds = %.noexc.i11, %_ZN8rationalD2Ev.exit
  %72 = landingpad { ptr, i32 }
          catch ptr null
  %73 = extractvalue { ptr, i32 } %72, 0
  call void @__clang_call_terminate(ptr %73) #25
  unreachable

_ZN8rationalD2Ev.exit12:                          ; preds = %.noexc.i11
  call void @llvm.lifetime.end.p0(i64 32, ptr nonnull %4) #24
  br label %74

74:                                               ; preds = %_ZNK11decl_plugin12are_distinctEP3appS1_.exit, %_ZN8rationalD2Ev.exit12
  %.08 = phi i1 [ %.1, %_ZN8rationalD2Ev.exit12 ], [ true, %_ZNK11decl_plugin12are_distinctEP3appS1_.exit ]
  ret i1 %.08
}